target datalayout = "e-m:e-p270:32:32-p271:32:32-p272:64:64-i64:64-i128:128-f80:128-n8:16:32:64-S128"
target triple = "x86_64-pc-linux-gnu"

%"class.cvc5::internal::theory::arith::linear::ArithStaticLearner" = type { %"class.cvc5::internal::EnvObj", %"class.cvc5::internal::ProofGenerator", %"class.cvc5::context::CDHashMap", %"class.cvc5::context::CDHashMap", %"class.cvc5::internal::theory::arith::linear::ArithStaticLearner::Statistics" }
%"class.cvc5::internal::EnvObj" = type { ptr, ptr }
%"class.cvc5::internal::ProofGenerator" = type { ptr }
%"class.cvc5::context::CDHashMap" = type { %"class.cvc5::context::ContextObj", %"class.std::unordered_map", ptr, ptr }
%"class.cvc5::context::ContextObj" = type { ptr, ptr, ptr, ptr, ptr }
%"class.std::unordered_map" = type { %"class.std::_Hashtable" }
%"class.std::_Hashtable" = type { ptr, i64, %"struct.std::__detail::_Hash_node_base", i64, %"struct.std::__detail::_Prime_rehash_policy", ptr }
%"struct.std::__detail::_Hash_node_base" = type { ptr }
%"struct.std::__detail::_Prime_rehash_policy" = type { float, i64 }
%"class.cvc5::internal::theory::arith::linear::ArithStaticLearner::Statistics" = type { %"class.cvc5::internal::IntStat", %"class.cvc5::internal::IntStat" }
%"class.cvc5::internal::IntStat" = type { %"class.cvc5::internal::ValueStat" }
%"class.cvc5::internal::ValueStat" = type { ptr }

; Function Attrs: mustprogress nounwind uwtable
define linkonce_odr hidden void @_ZN4cvc57context10ContextObjD2Ev(ptr noundef nonnull align 8 dereferenceable(40) %0) unnamed_addr #5 comdat align 2 {
  %2 = alloca ptr, align 8
  store ptr %0, ptr %2, align 8, !tbaa !407
  ret void
}

; Function Attrs: inlinehint mustprogress nounwind uwtable
define linkonce_odr hidden void @_ZNSt13unordered_mapIN4cvc58internal12NodeTemplateILb1EEEPNS0_7context11CDOhash_mapIS3_NS1_13DeltaRationalESt4hashIS3_EEES8_St8equal_toIS3_ESaISt4pairIKS3_SA_EEED2Ev(ptr noundef nonnull align 8 dereferenceable(56) %0) unnamed_addr #10 comdat align 2 {
  %2 = alloca ptr, align 8
  store ptr %0, ptr %2, align 8, !tbaa !403
  %3 = load ptr, ptr %2, align 8
  %4 = getelementptr inbounds nuw %"class.std::unordered_map", ptr %3, i32 0, i32 0
  call void @_ZNSt10_HashtableIN4cvc58internal12NodeTemplateILb1EEESt4pairIKS3_PNS0_7context11CDOhash_mapIS3_NS1_13DeltaRationalESt4hashIS3_EEEESaISD_ENSt8__detail10_Select1stESt8equal_toIS3_ESA_NSF_18_Mod_range_hashingENSF_20_Default_ranged_hashENSF_20_Prime_rehash_policyENSF_17_Hashtable_traitsILb1ELb0ELb1EEEED2Ev(ptr noundef nonnull align 8 dereferenceable(56) %4) #3
  ret void
}

; Function Attrs: mustprogress nounwind uwtable
define linkonce_odr hidden void @_ZN4cvc58internal6EnvObjD2Ev(ptr noundef nonnull align 8 dereferenceable(16) %0) unnamed_addr #5 comdat align 2 {
  %2 = alloca ptr, align 8
  store ptr %0, ptr %2, align 8, !tbaa !32
  ret void
}

; Function Attrs: mustprogress nounwind uwtable
define linkonce_odr hidden void @_ZN4cvc57context9CDHashMapINS_8internal12NodeTemplateILb1EEENS2_13DeltaRationalESt4hashIS4_EED2Ev(ptr noundef nonnull align 8 dereferenceable(112) %0) unnamed_addr #5 comdat align 2 personality ptr @__gxx_personality_v0 {
  %2 = alloca ptr, align 8
  store ptr %0, ptr %2, align 8, !tbaa !12
  %3 = load ptr, ptr %2, align 8
  store ptr getelementptr inbounds inrange(-16, 32) ({ [6 x ptr] }, ptr @_ZTVN4cvc57context9CDHashMapINS_8internal12NodeTemplateILb1EEENS2_13DeltaRationalESt4hashIS4_EEE, i32 0, i32 0, i32 2), ptr %3, align 8, !tbaa !10
  invoke void @_ZN4cvc57context10ContextObj7destroyEv(ptr noundef nonnull align 8 dereferenceable(40) %3)
          to label %4 unwind label %7

4:                                                ; preds = %1
  invoke void @_ZN4cvc57context9CDHashMapINS_8internal12NodeTemplateILb1EEENS2_13DeltaRationalESt4hashIS4_EE5clearEv(ptr noundef nonnull align 8 dereferenceable(112) %3)
          to label %5 unwind label %7

5:                                                ; preds = %4
  %6 = getelementptr inbounds nuw %"class.cvc5::context::CDHashMap", ptr %3, i32 0, i32 1
  call void @_ZNSt13unordered_mapIN4cvc58internal12NodeTemplateILb1EEEPNS0_7context11CDOhash_mapIS3_NS1_13DeltaRationalESt4hashIS3_EEES8_St8equal_toIS3_ESaISt4pairIKS3_SA_EEED2Ev(ptr noundef nonnull align 8 dereferenceable(56) %6) #3
  call void @_ZN4cvc57context10ContextObjD2Ev(ptr noundef nonnull align 8 dereferenceable(40) %3) #3
  ret void

7:                                                ; preds = %4, %1
  %8 = landingpad { ptr, i32 }
          catch ptr null
  %9 = extractvalue { ptr, i32 } %8, 0
  call void @__clang_call_terminate(ptr %9) #22
  unreachable
}

; Function Attrs: mustprogress nounwind uwtable
define hidden void @_ZN4cvc58internal6theory5arith6linear18ArithStaticLearnerD2Ev(ptr noundef nonnull align 8 dereferenceable(264) %0) unnamed_addr #5 align 2 {
  %2 = alloca ptr, align 8
  store ptr %0, ptr %2, align 8, !tbaa !3
  %3 = load ptr, ptr %2, align 8
  store ptr getelementptr inbounds inrange(-16, 32) ({ [6 x ptr], [8 x ptr] }, ptr @_ZTVN4cvc58internal6theory5arith6linear18ArithStaticLearnerE, i32 0, i32 0, i32 2), ptr %3, align 8, !tbaa !10
  %4 = getelementptr inbounds i8, ptr %3, i64 16
  store ptr getelementptr inbounds inrange(-16, 48) ({ [6 x ptr], [8 x ptr] }, ptr @_ZTVN4cvc58internal6theory5arith6linear18ArithStaticLearnerE, i32 0, i32 1, i32 2), ptr %4, align 8, !tbaa !10
  %5 = getelementptr inbounds nuw %"class.cvc5::internal::theory::arith::linear::ArithStaticLearner", ptr %3, i32 0, i32 3
  call void @_ZN4cvc57context9CDHashMapINS_8internal12NodeTemplateILb1EEENS2_13DeltaRationalESt4hashIS4_EED2Ev(ptr noundef nonnull align 8 dereferenceable(112) %5) #3
  %6 = getelementptr inbounds nuw %"class.cvc5::internal::theory::arith::linear::ArithStaticLearner", ptr %3, i32 0, i32 2
  call void @_ZN4cvc57context9CDHashMapINS_8internal12NodeTemplateILb1EEENS2_13DeltaRationalESt4hashIS4_EED2Ev(ptr noundef nonnull align 8 dereferenceable(112) %6) #3
  %7 = getelementptr inbounds i8, ptr %3, i64 16
  call void @_ZN4cvc58internal14ProofGeneratorD2Ev(ptr noundef nonnull align 8 dereferenceable(8) %7) #3
  call void @_ZN4cvc58internal6EnvObjD2Ev(ptr noundef nonnull align 8 dereferenceable(16) %3) #3
  ret void
}