; Function Attrs: mustprogress nounwind uwtable
define hidden void @_ZN4cvc58internal6theory5arith6linear18ArithStaticLearnerD2Ev(ptr noundef nonnull align 8 dereferenceable(264) initializes((0, 8), (16, 24), (136, 144)) %0) unnamed_addr #4 align 2 personality ptr @__gxx_personality_v0 {
  store ptr getelementptr inbounds nuw inrange(-16, 32) (i8, ptr @_ZTVN4cvc58internal6theory5arith6linear18ArithStaticLearnerE, i64 16), ptr %0, align 8, !tbaa !3
  %2 = getelementptr inbounds nuw i8, ptr %0, i64 16
  store ptr getelementptr inbounds nuw inrange(-16, 48) (i8, ptr @_ZTVN4cvc58internal6theory5arith6linear18ArithStaticLearnerE, i64 64), ptr %2, align 8, !tbaa !3
  %3 = getelementptr inbounds nuw i8, ptr %0, i64 136
  store ptr getelementptr inbounds nuw inrange(-16, 32) (i8, ptr @_ZTVN4cvc57context9CDHashMapINS_8internal12NodeTemplateILb1EEENS2_13DeltaRationalESt4hashIS4_EEE, i64 16), ptr %3, align 8, !tbaa !3
  invoke void @_ZN4cvc57context10ContextObj7destroyEv(ptr noundef nonnull align 8 dereferenceable(112) %3)
          to label %4 unwind label %5

4:                                                ; preds = %1
  invoke void @_ZN4cvc57context9CDHashMapINS_8internal12NodeTemplateILb1EEENS2_13DeltaRationalESt4hashIS4_EE5clearEv(ptr noundef nonnull align 8 dereferenceable(112) %3)
          to label %_ZN4cvc57context9CDHashMapINS_8internal12NodeTemplateILb1EEENS2_13DeltaRationalESt4hashIS4_EED2Ev.exit unwind label %5

5:                                                ; preds = %4, %1
  %6 = landingpad { ptr, i32 }
          catch ptr null
  %7 = extractvalue { ptr, i32 } %6, 0
  tail call void @__clang_call_terminate(ptr %7) #25
  unreachable

_ZN4cvc57context9CDHashMapINS_8internal12NodeTemplateILb1EEENS2_13DeltaRationalESt4hashIS4_EED2Ev.exit: ; preds = %4
  %8 = getelementptr inbounds nuw i8, ptr %0, i64 176
  tail call void @_ZNSt10_HashtableIN4cvc58internal12NodeTemplateILb1EEESt4pairIKS3_PNS0_7context11CDOhash_mapIS3_NS1_13DeltaRationalESt4hashIS3_EEEESaISD_ENSt8__detail10_Select1stESt8equal_toIS3_ESA_NSF_18_Mod_range_hashingENSF_20_Default_ranged_hashENSF_20_Prime_rehash_policyENSF_17_Hashtable_traitsILb1ELb0ELb1EEEED2Ev(ptr noundef nonnull align 8 dereferenceable(56) %8) #24
  %9 = getelementptr inbounds nuw i8, ptr %0, i64 24
  store ptr getelementptr inbounds nuw inrange(-16, 32) (i8, ptr @_ZTVN4cvc57context9CDHashMapINS_8internal12NodeTemplateILb1EEENS2_13DeltaRationalESt4hashIS4_EEE, i64 16), ptr %9, align 8, !tbaa !3
  invoke void @_ZN4cvc57context10ContextObj7destroyEv(ptr noundef nonnull align 8 dereferenceable(112) %9)
          to label %10 unwind label %11

10:                                               ; preds = %_ZN4cvc57context9CDHashMapINS_8internal12NodeTemplateILb1EEENS2_13DeltaRationalESt4hashIS4_EED2Ev.exit
  invoke void @_ZN4cvc57context9CDHashMapINS_8internal12NodeTemplateILb1EEENS2_13DeltaRationalESt4hashIS4_EE5clearEv(ptr noundef nonnull align 8 dereferenceable(112) %9)
          to label %_ZN4cvc57context9CDHashMapINS_8internal12NodeTemplateILb1EEENS2_13DeltaRationalESt4hashIS4_EED2Ev.exit1 unwind label %11

11:                                               ; preds = %10, %_ZN4cvc57context9CDHashMapINS_8internal12NodeTemplateILb1EEENS2_13DeltaRationalESt4hashIS4_EED2Ev.exit
  %12 = landingpad { ptr, i32 }
          catch ptr null
  %13 = extractvalue { ptr, i32 } %12, 0
  tail call void @__clang_call_terminate(ptr %13) #25
  unreachable

_ZN4cvc57context9CDHashMapINS_8internal12NodeTemplateILb1EEENS2_13DeltaRationalESt4hashIS4_EED2Ev.exit1: ; preds = %10
  %14 = getelementptr inbounds nuw i8, ptr %0, i64 64
  tail call void @_ZNSt10_HashtableIN4cvc58internal12NodeTemplateILb1EEESt4pairIKS3_PNS0_7context11CDOhash_mapIS3_NS1_13DeltaRationalESt4hashIS3_EEEESaISD_ENSt8__detail10_Select1stESt8equal_toIS3_ESA_NSF_18_Mod_range_hashingENSF_20_Default_ranged_hashENSF_20_Prime_rehash_policyENSF_17_Hashtable_traitsILb1ELb0ELb1EEEED2Ev(ptr noundef nonnull align 8 dereferenceable(56) %14) #24
  tail call void @_ZN4cvc58internal14ProofGeneratorD2Ev(ptr noundef nonnull align 8 dereferenceable(8) %2) #24
  ret void
}